target datalayout = "e-m:e-p270:32:32-p271:32:32-p272:64:64-i64:64-i128:128-f80:128-n8:16:32:64-S128"
target triple = "x86_64-pc-linux-gnu"

%struct.tr2_tgt = type { ptr, ptr, ptr, ptr, ptr, ptr, ptr, ptr, ptr, ptr, ptr, ptr, ptr, ptr, ptr, ptr, ptr, ptr, ptr, ptr, ptr, ptr, ptr, ptr, ptr, ptr, ptr, ptr, ptr, ptr }

@trace2_enabled = internal global i32 0, align 4
@tr2_tgt_builtins = internal global [4 x ptr] [ptr @tr2_tgt_normal, ptr @tr2_tgt_perf, ptr @tr2_tgt_event, ptr null], align 16
@tr2_next_exec_id = internal global i32 0, align 4

; Function Attrs: nounwind uwtable
define internal void @free_redacted_argv(ptr noundef %0, ptr noundef %1) #0 {
  %3 = alloca ptr, align 8
  %4 = alloca ptr, align 8
  %5 = alloca i32, align 4
  store ptr %0, ptr %3, align 8, !tbaa !27
  store ptr %1, ptr %4, align 8, !tbaa !27
  call void @llvm.lifetime.start.p0(i64 4, ptr %5) #9
  %6 = load ptr, ptr %3, align 8, !tbaa !27
  %7 = load ptr, ptr %4, align 8, !tbaa !27
  %8 = icmp ne ptr %6, %7
  br i1 %8, label %9, label %41

9:                                                ; preds = %2
  store i32 0, ptr %5, align 4, !tbaa !9
  br label %10

10:                                               ; preds = %36, %9
  %11 = load ptr, ptr %4, align 8, !tbaa !27
  %12 = load i32, ptr %5, align 4, !tbaa !9
  %13 = sext i32 %12 to i64
  %14 = getelementptr inbounds ptr, ptr %11, i64 %13
  %15 = load ptr, ptr %14, align 8, !tbaa !4
  %16 = icmp ne ptr %15, null
  br i1 %16, label %17, label %39

17:                                               ; preds = %10
  %18 = load ptr, ptr %3, align 8, !tbaa !27
  %19 = load i32, ptr %5, align 4, !tbaa !9
  %20 = sext i32 %19 to i64
  %21 = getelementptr inbounds ptr, ptr %18, i64 %20
  %22 = load ptr, ptr %21, align 8, !tbaa !4
  %23 = load ptr, ptr %4, align 8, !tbaa !27
  %24 = load i32, ptr %5, align 4, !tbaa !9
  %25 = sext i32 %24 to i64
  %26 = getelementptr inbounds ptr, ptr %23, i64 %25
  %27 = load ptr, ptr %26, align 8, !tbaa !4
  %28 = icmp ne ptr %22, %27
  br i1 %28, label %29, label %35

29:                                               ; preds = %17
  %30 = load ptr, ptr %3, align 8, !tbaa !27
  %31 = load i32, ptr %5, align 4, !tbaa !9
  %32 = sext i32 %31 to i64
  %33 = getelementptr inbounds ptr, ptr %30, i64 %32
  %34 = load ptr, ptr %33, align 8, !tbaa !4
  call void @free(ptr noundef %34) #9
  br label %35

35:                                               ; preds = %29, %17
  br label %36

36:                                               ; preds = %35
  %37 = load i32, ptr %5, align 4, !tbaa !9
  %38 = add nsw i32 %37, 1
  store i32 %38, ptr %5, align 4, !tbaa !9
  br label %10, !llvm.loop !35

39:                                               ; preds = %10
  %40 = load ptr, ptr %3, align 8, !tbaa !27
  call void @free(ptr noundef %40) #9
  br label %41

41:                                               ; preds = %39, %2
  call void @llvm.lifetime.end.p0(i64 4, ptr %5) #9
  ret void
}

; Function Attrs: nounwind uwtable
define dso_local i32 @trace2_exec_fl(ptr noundef %0, i32 noundef %1, ptr noundef %2, ptr noundef %3) #0 {
  %5 = alloca i32, align 4
  %6 = alloca ptr, align 8
  %7 = alloca i32, align 4
  %8 = alloca ptr, align 8
  %9 = alloca ptr, align 8
  %10 = alloca ptr, align 8
  %11 = alloca i32, align 4
  %12 = alloca i32, align 4
  %13 = alloca i64, align 8
  %14 = alloca i64, align 8
  %15 = alloca ptr, align 8
  %16 = alloca i32, align 4
  store ptr %0, ptr %6, align 8, !tbaa !4
  store i32 %1, ptr %7, align 4, !tbaa !9
  store ptr %2, ptr %8, align 8, !tbaa !4
  store ptr %3, ptr %9, align 8, !tbaa !27
  call void @llvm.lifetime.start.p0(i64 8, ptr %10) #9
  call void @llvm.lifetime.start.p0(i64 4, ptr %11) #9
  call void @llvm.lifetime.start.p0(i64 4, ptr %12) #9
  call void @llvm.lifetime.start.p0(i64 8, ptr %13) #9
  call void @llvm.lifetime.start.p0(i64 8, ptr %14) #9
  call void @llvm.lifetime.start.p0(i64 8, ptr %15) #9
  %17 = load i32, ptr @trace2_enabled, align 4, !tbaa !9
  %18 = icmp ne i32 %17, 0
  br i1 %18, label %20, label %19

19:                                               ; preds = %4
  store i32 -1, ptr %5, align 4
  store i32 1, ptr %16, align 4
  br label %69

20:                                               ; preds = %4
  %21 = call i64 @getnanotime()
  %22 = udiv i64 %21, 1000
  store i64 %22, ptr %13, align 8, !tbaa !21
  %23 = load i64, ptr %13, align 8, !tbaa !21
  %24 = call i64 @tr2tls_absolute_elapsed(i64 noundef %23)
  store i64 %24, ptr %14, align 8, !tbaa !21
  %25 = call i32 @tr2tls_locked_increment(ptr noundef @tr2_next_exec_id)
  store i32 %25, ptr %12, align 4, !tbaa !9
  %26 = load ptr, ptr %9, align 8, !tbaa !27
  %27 = call ptr @redact_argv(ptr noundef %26)
  store ptr %27, ptr %15, align 8, !tbaa !27
  store i32 0, ptr %11, align 4, !tbaa !9
  %28 = load i32, ptr %11, align 4, !tbaa !9
  %29 = sext i32 %28 to i64
  %30 = getelementptr inbounds [4 x ptr], ptr @tr2_tgt_builtins, i64 0, i64 %29
  %31 = load ptr, ptr %30, align 8, !tbaa !11
  store ptr %31, ptr %10, align 8, !tbaa !11
  br label %32

32:                                               ; preds = %58, %20
  %33 = load ptr, ptr %10, align 8, !tbaa !11
  %34 = icmp ne ptr %33, null
  br i1 %34, label %35, label %65

35:                                               ; preds = %32
  %36 = load ptr, ptr %10, align 8, !tbaa !11
  %37 = getelementptr inbounds nuw %struct.tr2_tgt, ptr %36, i32 0, i32 0
  %38 = load ptr, ptr %37, align 8, !tbaa !13
  %39 = call i32 @tr2_dst_trace_want(ptr noundef %38)
  %40 = icmp ne i32 %39, 0
  br i1 %40, label %41, label %57

41:                                               ; preds = %35
  %42 = load ptr, ptr %10, align 8, !tbaa !11
  %43 = getelementptr inbounds nuw %struct.tr2_tgt, ptr %42, i32 0, i32 19
  %44 = load ptr, ptr %43, align 8, !tbaa !66
  %45 = icmp ne ptr %44, null
  br i1 %45, label %46, label %56

46:                                               ; preds = %41
  %47 = load ptr, ptr %10, align 8, !tbaa !11
  %48 = getelementptr inbounds nuw %struct.tr2_tgt, ptr %47, i32 0, i32 19
  %49 = load ptr, ptr %48, align 8, !tbaa !66
  %50 = load ptr, ptr %6, align 8, !tbaa !4
  %51 = load i32, ptr %7, align 4, !tbaa !9
  %52 = load i64, ptr %14, align 8, !tbaa !21
  %53 = load i32, ptr %12, align 4, !tbaa !9
  %54 = load ptr, ptr %8, align 8, !tbaa !4
  %55 = load ptr, ptr %15, align 8, !tbaa !27
  call void %49(ptr noundef %50, i32 noundef %51, i64 noundef %52, i32 noundef %53, ptr noundef %54, ptr noundef %55)
  br label %56

56:                                               ; preds = %46, %41
  br label %57

57:                                               ; preds = %56, %35
  br label %58

58:                                               ; preds = %57
  %59 = load i32, ptr %11, align 4, !tbaa !9
  %60 = add nsw i32 %59, 1
  store i32 %60, ptr %11, align 4, !tbaa !9
  %61 = load i32, ptr %11, align 4, !tbaa !9
  %62 = sext i32 %61 to i64
  %63 = getelementptr inbounds [4 x ptr], ptr @tr2_tgt_builtins, i64 0, i64 %62
  %64 = load ptr, ptr %63, align 8, !tbaa !11
  store ptr %64, ptr %10, align 8, !tbaa !11
  br label %32, !llvm.loop !67

65:                                               ; preds = %32
  %66 = load ptr, ptr %15, align 8, !tbaa !27
  %67 = load ptr, ptr %9, align 8, !tbaa !27
  call void @free_redacted_argv(ptr noundef %66, ptr noundef %67)
  %68 = load i32, ptr %12, align 4, !tbaa !9
  store i32 %68, ptr %5, align 4
  store i32 1, ptr %16, align 4
  br label %69

69:                                               ; preds = %65, %19
  call void @llvm.lifetime.end.p0(i64 8, ptr %15) #9
  call void @llvm.lifetime.end.p0(i64 8, ptr %14) #9
  call void @llvm.lifetime.end.p0(i64 8, ptr %13) #9
  call void @llvm.lifetime.end.p0(i64 4, ptr %12) #9
  call void @llvm.lifetime.end.p0(i64 4, ptr %11) #9
  call void @llvm.lifetime.end.p0(i64 8, ptr %10) #9
  %70 = load i32, ptr %5, align 4
  ret i32 %70
}