; Function Attrs: nounwind uwtable
define dso_local i32 @trace2_exec_fl(ptr noundef %0, i32 noundef %1, ptr noundef %2, ptr noundef %3) local_unnamed_addr #0 {
  %.b = load i1, ptr @trace2_enabled, align 4
  br i1 %.b, label %5, label %free_redacted_argv.exit

5:                                                ; preds = %4
  %6 = tail call i64 @getnanotime() #11
  %7 = udiv i64 %6, 1000
  %8 = tail call i64 @tr2tls_absolute_elapsed(i64 noundef %7) #11
  %9 = tail call i32 @tr2tls_locked_increment(ptr noundef nonnull @tr2_next_exec_id) #11
  %10 = tail call fastcc ptr @redact_argv(ptr noundef %3)
  br label %11

11:                                               ; preds = %5, %18
  %indvars.iv = phi i64 [ 0, %5 ], [ %indvars.iv.next, %18 ]
  %.01824 = phi ptr [ @tr2_tgt_normal, %5 ], [ %20, %18 ]
  %12 = load ptr, ptr %.01824, align 8, !tbaa !14
  %13 = tail call i32 @tr2_dst_trace_want(ptr noundef %12) #11
  %.not21 = icmp eq i32 %13, 0
  br i1 %.not21, label %18, label %14

14:                                               ; preds = %11
  %15 = getelementptr inbounds nuw i8, ptr %.01824, i64 152
  %16 = load ptr, ptr %15, align 8, !tbaa !64
  %.not22 = icmp eq ptr %16, null
  br i1 %.not22, label %18, label %17

17:                                               ; preds = %14
  tail call void %16(ptr noundef %0, i32 noundef %1, i64 noundef %8, i32 noundef %9, ptr noundef %2, ptr noundef %10) #11
  br label %18

18:                                               ; preds = %11, %17, %14
  %indvars.iv.next = add nuw nsw i64 %indvars.iv, 1
  %19 = getelementptr inbounds nuw [4 x ptr], ptr @tr2_tgt_builtins, i64 0, i64 %indvars.iv.next
  %20 = load ptr, ptr %19, align 8, !tbaa !10
  %.not = icmp eq i64 %indvars.iv.next, 3
  br i1 %.not, label %21, label %11, !llvm.loop !65

21:                                               ; preds = %18
  %.not.i = icmp eq ptr %10, %3
  br i1 %.not.i, label %free_redacted_argv.exit, label %.preheader.i

.preheader.i:                                     ; preds = %21
  %22 = load ptr, ptr %3, align 8, !tbaa !27
  %.not1517.i = icmp eq ptr %22, null
  br i1 %.not1517.i, label %._crit_edge.i, label %.lr.ph.i

.lr.ph.i:                                         ; preds = %.preheader.i, %27
  %indvars.iv.i = phi i64 [ %indvars.iv.next.i, %27 ], [ 0, %.preheader.i ]
  %23 = phi ptr [ %29, %27 ], [ %22, %.preheader.i ]
  %24 = getelementptr inbounds nuw ptr, ptr %10, i64 %indvars.iv.i
  %25 = load ptr, ptr %24, align 8, !tbaa !27
  %.not16.i = icmp eq ptr %25, %23
  br i1 %.not16.i, label %27, label %26

26:                                               ; preds = %.lr.ph.i
  tail call void @free(ptr noundef %25) #11
  br label %27

27:                                               ; preds = %26, %.lr.ph.i
  %indvars.iv.next.i = add nuw nsw i64 %indvars.iv.i, 1
  %28 = getelementptr inbounds nuw ptr, ptr %3, i64 %indvars.iv.next.i
  %29 = load ptr, ptr %28, align 8, !tbaa !27
  %.not15.i = icmp eq ptr %29, null
  br i1 %.not15.i, label %._crit_edge.i, label %.lr.ph.i, !llvm.loop !29

._crit_edge.i:                                    ; preds = %27, %.preheader.i
  tail call void @free(ptr noundef %10) #11
  br label %free_redacted_argv.exit

free_redacted_argv.exit:                          ; preds = %._crit_edge.i, %21, %4
  %.0 = phi i32 [ -1, %4 ], [ %9, %21 ], [ %9, %._crit_edge.i ]
  ret i32 %.0
}